(dp0
I0
F0.09871666666666666
sI1
F0.11236666666666667
sI2
F0.0993
sI3
F0.10218333333333333
sI4
F0.09736666666666667
sI5
F0.09035
sI6
F0.09863333333333334
sI7
F0.10441666666666667
sI8
F0.09751666666666667
sI9
F0.09915
s.